ccopy_reg
_reconstructor
p0
(csklearn.linear_model.logistic
LogisticRegression
p1
c__builtin__
object
p2
Ntp3
Rp4
(dp5
S'C'
p6
F1.0
sS'max_iter'
p7
I100
sS'verbose'
p8
I0
sS'intercept_scaling'
p9
I1
sS'dual'
p10
I00
sS'fit_intercept'
p11
I01
sS'solver'
p12
S'liblinear'
p13
sS'penalty'
p14
S'l2'
p15
sS'multi_class'
p16
S'ovr'
p17
sS'random_state'
p18
NsS'tol'
p19
F0.0001
sS'class_weight'
p20
Nsb.